target datalayout = "e-m:e-p270:32:32-p271:32:32-p272:64:64-i64:64-i128:128-f80:128-n8:16:32:64-S128"
target triple = "x86_64-pc-linux-gnu"

@.str.3 = private unnamed_addr constant [37 x i8] c"../openssl/test/pkey_meth_kdf_test.c\00", align 1
@.str.4 = private unnamed_addr constant [18 x i8] c"EVP_PKEY_TLS1_PRF\00", align 1
@.str.5 = private unnamed_addr constant [21 x i8] c"EVP_PKEY_derive_init\00", align 1
@.str.6 = private unnamed_addr constant [29 x i8] c"EVP_PKEY_CTX_set_tls1_prf_md\00", align 1
@.str.7 = private unnamed_addr constant [7 x i8] c"secret\00", align 1
@.str.8 = private unnamed_addr constant [34 x i8] c"EVP_PKEY_CTX_set1_tls1_prf_secret\00", align 1
@.str.9 = private unnamed_addr constant [5 x i8] c"seed\00", align 1
@.str.10 = private unnamed_addr constant [32 x i8] c"EVP_PKEY_CTX_add1_tls1_prf_seed\00", align 1
@.str.11 = private unnamed_addr constant [3 x i8] c"se\00", align 1
@.str.12 = private unnamed_addr constant [3 x i8] c"ed\00", align 1
@.str.13 = private unnamed_addr constant [16 x i8] c"EVP_PKEY_derive\00", align 1
@__const.test_kdf_tls1_prf.expected = private unnamed_addr constant [16 x i8] c"\8EM\93%0\D7e\A0\AA\E9t\C3\04s^\CC", align 16
@.str.14 = private unnamed_addr constant [4 x i8] c"out\00", align 1
@.str.15 = private unnamed_addr constant [9 x i8] c"expected\00", align 1

; Function Attrs: nounwind uwtable
define internal i32 @test_kdf_tls1_prf(i32 noundef %0) #0 {
  %2 = alloca i32, align 4
  %3 = alloca i32, align 4
  %4 = alloca i32, align 4
  %5 = alloca ptr, align 8
  %6 = alloca [16 x i8], align 16
  %7 = alloca i64, align 8
  %8 = alloca [16 x i8], align 16
  %9 = alloca i32, align 4
  store i32 %0, ptr %3, align 4, !tbaa !4
  call void @llvm.lifetime.start.p0(i64 4, ptr %4) #4
  store i32 0, ptr %4, align 4, !tbaa !4
  call void @llvm.lifetime.start.p0(i64 8, ptr %5) #4
  call void @llvm.lifetime.start.p0(i64 16, ptr %6) #4
  call void @llvm.lifetime.start.p0(i64 8, ptr %7) #4
  store i64 16, ptr %7, align 8, !tbaa !8
  %10 = call ptr @EVP_PKEY_CTX_new_id(i32 noundef 1021, ptr noundef null)
  store ptr %10, ptr %5, align 8, !tbaa !10
  %11 = icmp eq ptr %10, null
  br i1 %11, label %12, label %13

12:                                               ; preds = %1
  call void (ptr, i32, ptr, ...) @test_error(ptr noundef @.str.3, i32 noundef 27, ptr noundef @.str.4)
  br label %65

13:                                               ; preds = %1
  %14 = load ptr, ptr %5, align 8, !tbaa !10
  %15 = call i32 @EVP_PKEY_derive_init(ptr noundef %14)
  %16 = icmp sle i32 %15, 0
  br i1 %16, label %17, label %18

17:                                               ; preds = %13
  call void (ptr, i32, ptr, ...) @test_error(ptr noundef @.str.3, i32 noundef 31, ptr noundef @.str.5)
  br label %65

18:                                               ; preds = %13
  %19 = load ptr, ptr %5, align 8, !tbaa !10
  %20 = call ptr @EVP_sha256()
  %21 = call i32 @EVP_PKEY_CTX_set_tls1_prf_md(ptr noundef %19, ptr noundef %20)
  %22 = icmp sle i32 %21, 0
  br i1 %22, label %23, label %24

23:                                               ; preds = %18
  call void (ptr, i32, ptr, ...) @test_error(ptr noundef @.str.3, i32 noundef 35, ptr noundef @.str.6)
  br label %65

24:                                               ; preds = %18
  %25 = load ptr, ptr %5, align 8, !tbaa !10
  %26 = call i32 @EVP_PKEY_CTX_set1_tls1_prf_secret(ptr noundef %25, ptr noundef @.str.7, i32 noundef 6)
  %27 = icmp sle i32 %26, 0
  br i1 %27, label %28, label %29

28:                                               ; preds = %24
  call void (ptr, i32, ptr, ...) @test_error(ptr noundef @.str.3, i32 noundef 40, ptr noundef @.str.8)
  br label %65

29:                                               ; preds = %24
  %30 = load i32, ptr %3, align 4, !tbaa !4
  %31 = icmp eq i32 %30, 0
  br i1 %31, label %32, label %38

32:                                               ; preds = %29
  %33 = load ptr, ptr %5, align 8, !tbaa !10
  %34 = call i32 @EVP_PKEY_CTX_add1_tls1_prf_seed(ptr noundef %33, ptr noundef @.str.9, i32 noundef 4)
  %35 = icmp sle i32 %34, 0
  br i1 %35, label %36, label %37

36:                                               ; preds = %32
  call void (ptr, i32, ptr, ...) @test_error(ptr noundef @.str.3, i32 noundef 46, ptr noundef @.str.10)
  br label %65

37:                                               ; preds = %32
  br label %49

38:                                               ; preds = %29
  %39 = load ptr, ptr %5, align 8, !tbaa !10
  %40 = call i32 @EVP_PKEY_CTX_add1_tls1_prf_seed(ptr noundef %39, ptr noundef @.str.11, i32 noundef 2)
  %41 = icmp sle i32 %40, 0
  br i1 %41, label %42, label %43

42:                                               ; preds = %38
  call void (ptr, i32, ptr, ...) @test_error(ptr noundef @.str.3, i32 noundef 52, ptr noundef @.str.10)
  br label %65

43:                                               ; preds = %38
  %44 = load ptr, ptr %5, align 8, !tbaa !10
  %45 = call i32 @EVP_PKEY_CTX_add1_tls1_prf_seed(ptr noundef %44, ptr noundef @.str.12, i32 noundef 2)
  %46 = icmp sle i32 %45, 0
  br i1 %46, label %47, label %48

47:                                               ; preds = %43
  call void (ptr, i32, ptr, ...) @test_error(ptr noundef @.str.3, i32 noundef 57, ptr noundef @.str.10)
  br label %65

48:                                               ; preds = %43
  br label %49

49:                                               ; preds = %48, %37
  %50 = load ptr, ptr %5, align 8, !tbaa !10
  %51 = getelementptr inbounds [16 x i8], ptr %6, i64 0, i64 0
  %52 = call i32 @EVP_PKEY_derive(ptr noundef %50, ptr noundef %51, ptr noundef %7)
  %53 = icmp sle i32 %52, 0
  br i1 %53, label %54, label %55

54:                                               ; preds = %49
  call void (ptr, i32, ptr, ...) @test_error(ptr noundef @.str.3, i32 noundef 62, ptr noundef @.str.13)
  br label %65

55:                                               ; preds = %49
  call void @llvm.lifetime.start.p0(i64 16, ptr %8) #4
  call void @llvm.memcpy.p0.p0.i64(ptr align 16 %8, ptr align 16 @__const.test_kdf_tls1_prf.expected, i64 16, i1 false)
  %56 = getelementptr inbounds [16 x i8], ptr %6, i64 0, i64 0
  %57 = getelementptr inbounds [16 x i8], ptr %8, i64 0, i64 0
  %58 = call i32 @test_mem_eq(ptr noundef @.str.3, i32 noundef 71, ptr noundef @.str.14, ptr noundef @.str.15, ptr noundef %56, i64 noundef 16, ptr noundef %57, i64 noundef 16)
  %59 = icmp ne i32 %58, 0
  br i1 %59, label %61, label %60

60:                                               ; preds = %55
  store i32 2, ptr %9, align 4
  br label %62

61:                                               ; preds = %55
  store i32 0, ptr %9, align 4
  br label %62

62:                                               ; preds = %60, %61
  call void @llvm.lifetime.end.p0(i64 16, ptr %8) #4
  %63 = load i32, ptr %9, align 4
  switch i32 %63, label %68 [
    i32 0, label %64
    i32 2, label %65
  ]

64:                                               ; preds = %62
  store i32 1, ptr %4, align 4, !tbaa !4
  br label %65

65:                                               ; preds = %64, %62, %54, %47, %42, %36, %28, %23, %17, %12
  %66 = load ptr, ptr %5, align 8, !tbaa !10
  call void @EVP_PKEY_CTX_free(ptr noundef %66)
  %67 = load i32, ptr %4, align 4, !tbaa !4
  store i32 %67, ptr %2, align 4
  store i32 1, ptr %9, align 4
  br label %68

68:                                               ; preds = %65, %62
  call void @llvm.lifetime.end.p0(i64 8, ptr %7) #4
  call void @llvm.lifetime.end.p0(i64 16, ptr %6) #4
  call void @llvm.lifetime.end.p0(i64 8, ptr %5) #4
  call void @llvm.lifetime.end.p0(i64 4, ptr %4) #4
  %69 = load i32, ptr %2, align 4
  ret i32 %69
}