; Function Attrs: nounwind uwtable
define internal range(i32 0, 2) i32 @test_kdf_tls1_prf(i32 noundef %0) #0 {
  %2 = alloca [16 x i8], align 16
  %3 = alloca i64, align 8
  %4 = alloca [16 x i8], align 16
  call void @llvm.lifetime.start.p0(i64 16, ptr nonnull %2) #4
  call void @llvm.lifetime.start.p0(i64 8, ptr nonnull %3) #4
  store i64 16, ptr %3, align 8, !tbaa !4
  %5 = tail call ptr @EVP_PKEY_CTX_new_id(i32 noundef 1021, ptr noundef null) #4
  %6 = icmp eq ptr %5, null
  br i1 %6, label %7, label %8

7:                                                ; preds = %1
  tail call void (ptr, i32, ptr, ...) @test_error(ptr noundef nonnull @.str.3, i32 noundef 27, ptr noundef nonnull @.str.4) #4
  br label %41

8:                                                ; preds = %1
  %9 = tail call i32 @EVP_PKEY_derive_init(ptr noundef nonnull %5) #4
  %10 = icmp slt i32 %9, 1
  br i1 %10, label %11, label %12

11:                                               ; preds = %8
  tail call void (ptr, i32, ptr, ...) @test_error(ptr noundef nonnull @.str.3, i32 noundef 31, ptr noundef nonnull @.str.5) #4
  br label %41

12:                                               ; preds = %8
  %13 = tail call ptr @EVP_sha256() #4
  %14 = tail call i32 @EVP_PKEY_CTX_set_tls1_prf_md(ptr noundef nonnull %5, ptr noundef %13) #4
  %15 = icmp slt i32 %14, 1
  br i1 %15, label %16, label %17

16:                                               ; preds = %12
  tail call void (ptr, i32, ptr, ...) @test_error(ptr noundef nonnull @.str.3, i32 noundef 35, ptr noundef nonnull @.str.6) #4
  br label %41

17:                                               ; preds = %12
  %18 = tail call i32 @EVP_PKEY_CTX_set1_tls1_prf_secret(ptr noundef nonnull %5, ptr noundef nonnull @.str.7, i32 noundef 6) #4
  %19 = icmp slt i32 %18, 1
  br i1 %19, label %20, label %21

20:                                               ; preds = %17
  tail call void (ptr, i32, ptr, ...) @test_error(ptr noundef nonnull @.str.3, i32 noundef 40, ptr noundef nonnull @.str.8) #4
  br label %41

21:                                               ; preds = %17
  %22 = icmp eq i32 %0, 0
  br i1 %22, label %23, label %27

23:                                               ; preds = %21
  %24 = tail call i32 @EVP_PKEY_CTX_add1_tls1_prf_seed(ptr noundef nonnull %5, ptr noundef nonnull @.str.9, i32 noundef 4) #4
  %25 = icmp slt i32 %24, 1
  br i1 %25, label %26, label %35

26:                                               ; preds = %23
  tail call void (ptr, i32, ptr, ...) @test_error(ptr noundef nonnull @.str.3, i32 noundef 46, ptr noundef nonnull @.str.10) #4
  br label %41

27:                                               ; preds = %21
  %28 = tail call i32 @EVP_PKEY_CTX_add1_tls1_prf_seed(ptr noundef nonnull %5, ptr noundef nonnull @.str.11, i32 noundef 2) #4
  %29 = icmp slt i32 %28, 1
  br i1 %29, label %30, label %31

30:                                               ; preds = %27
  tail call void (ptr, i32, ptr, ...) @test_error(ptr noundef nonnull @.str.3, i32 noundef 52, ptr noundef nonnull @.str.10) #4
  br label %41

31:                                               ; preds = %27
  %32 = tail call i32 @EVP_PKEY_CTX_add1_tls1_prf_seed(ptr noundef nonnull %5, ptr noundef nonnull @.str.12, i32 noundef 2) #4
  %33 = icmp slt i32 %32, 1
  br i1 %33, label %34, label %35

34:                                               ; preds = %31
  tail call void (ptr, i32, ptr, ...) @test_error(ptr noundef nonnull @.str.3, i32 noundef 57, ptr noundef nonnull @.str.10) #4
  br label %41

35:                                               ; preds = %31, %23
  %36 = call i32 @EVP_PKEY_derive(ptr noundef nonnull %5, ptr noundef nonnull %2, ptr noundef nonnull %3) #4
  %37 = icmp slt i32 %36, 1
  br i1 %37, label %38, label %39

38:                                               ; preds = %35
  call void (ptr, i32, ptr, ...) @test_error(ptr noundef nonnull @.str.3, i32 noundef 62, ptr noundef nonnull @.str.13) #4
  br label %41

39:                                               ; preds = %35
  call void @llvm.lifetime.start.p0(i64 16, ptr nonnull %4) #4
  call void @llvm.memcpy.p0.p0.i64(ptr noundef nonnull align 16 dereferenceable(16) %4, ptr noundef nonnull align 16 dereferenceable(16) @__const.test_kdf_tls1_prf.expected, i64 16, i1 false)
  %40 = call i32 @test_mem_eq(ptr noundef nonnull @.str.3, i32 noundef 71, ptr noundef nonnull @.str.14, ptr noundef nonnull @.str.15, ptr noundef nonnull %2, i64 noundef 16, ptr noundef nonnull %4, i64 noundef 16) #4
  %.not = icmp ne i32 %40, 0
  call void @llvm.lifetime.end.p0(i64 16, ptr nonnull %4) #4
  %spec.select = zext i1 %.not to i32
  br label %41

41:                                               ; preds = %39, %38, %34, %30, %26, %20, %16, %11, %7
  %.012 = phi i32 [ 0, %7 ], [ 0, %11 ], [ 0, %16 ], [ 0, %20 ], [ 0, %26 ], [ 0, %38 ], [ 0, %30 ], [ 0, %34 ], [ %spec.select, %39 ]
  call void @EVP_PKEY_CTX_free(ptr noundef %5) #4
  call void @llvm.lifetime.end.p0(i64 8, ptr nonnull %3) #4
  call void @llvm.lifetime.end.p0(i64 16, ptr nonnull %2) #4
  ret i32 %.012
}